#include <math.h>
#include <stdio.h>
#include <stdlib.h>
#include <string.h>

int main(int argc, char* argv[])
{
	int n,m;
	scanf("%d%d",&n,&m);
	int i,temp,a[101];
	for(i=n-1;i>=0;i--){
		scanf("%d",&a[i]);}
	while(m--){
		
	temp=a[0];
	for(i=0;i<n-1;i++){
	a[i]=a[i+1];}
	a[n-1]=temp;}
	for(i=n-1;i>0;i--){
	printf("%d ",a[i]);}
	printf("%d\n",a[i]);
	return 0;
}