; ModuleID = '52/4770.c'
source_filename = "52/4770.c"
target datalayout = "e-m:e-p270:32:32-p271:32:32-p272:64:64-i64:64-f80:128-n8:16:32:64-S128"
target triple = "x86_64-pc-linux-gnu"

@.str = private unnamed_addr constant [5 x i8] c"%d%d\00", align 1
@.str.1 = private unnamed_addr constant [3 x i8] c"%d\00", align 1
@.str.2 = private unnamed_addr constant [4 x i8] c"%d \00", align 1
@.str.3 = private unnamed_addr constant [4 x i8] c"%d\0A\00", align 1

; Function Attrs: noinline nounwind uwtable
define dso_local i32 @main(i32 %0, i8** %1) #0 {
  %3 = alloca i32, align 4
  %4 = alloca i32, align 4
  %5 = alloca i8**, align 8
  %6 = alloca i32, align 4
  %7 = alloca i32, align 4
  %8 = alloca i32, align 4
  %9 = alloca i32, align 4
  %10 = alloca [101 x i32], align 16
  store i32 0, i32* %3, align 4
  store i32 %0, i32* %4, align 4
  store i8** %1, i8*** %5, align 8
  %11 = call i32 (i8*, ...) @__isoc99_scanf(i8* getelementptr inbounds ([5 x i8], [5 x i8]* @.str, i64 0, i64 0), i32* %6, i32* %7)
  %12 = load i32, i32* %6, align 4
  %13 = sub nsw i32 %12, 1
  store i32 %13, i32* %8, align 4
  br label %14

14:                                               ; preds = %22, %2
  %15 = load i32, i32* %8, align 4
  %16 = icmp sge i32 %15, 0
  br i1 %16, label %17, label %25

17:                                               ; preds = %14
  %18 = load i32, i32* %8, align 4
  %19 = sext i32 %18 to i64
  %20 = getelementptr inbounds [101 x i32], [101 x i32]* %10, i64 0, i64 %19
  %21 = call i32 (i8*, ...) @__isoc99_scanf(i8* getelementptr inbounds ([3 x i8], [3 x i8]* @.str.1, i64 0, i64 0), i32* %20)
  br label %22

22:                                               ; preds = %17
  %23 = load i32, i32* %8, align 4
  %24 = add nsw i32 %23, -1
  store i32 %24, i32* %8, align 4
  br label %14

25:                                               ; preds = %14
  br label %26

26:                                               ; preds = %50, %25
  %27 = load i32, i32* %7, align 4
  %28 = add nsw i32 %27, -1
  store i32 %28, i32* %7, align 4
  %29 = icmp ne i32 %27, 0
  br i1 %29, label %30, label %56

30:                                               ; preds = %26
  %31 = getelementptr inbounds [101 x i32], [101 x i32]* %10, i64 0, i64 0
  %32 = load i32, i32* %31, align 16
  store i32 %32, i32* %9, align 4
  store i32 0, i32* %8, align 4
  br label %33

33:                                               ; preds = %47, %30
  %34 = load i32, i32* %8, align 4
  %35 = load i32, i32* %6, align 4
  %36 = sub nsw i32 %35, 1
  %37 = icmp slt i32 %34, %36
  br i1 %37, label %38, label %50

38:                                               ; preds = %33
  %39 = load i32, i32* %8, align 4
  %40 = add nsw i32 %39, 1
  %41 = sext i32 %40 to i64
  %42 = getelementptr inbounds [101 x i32], [101 x i32]* %10, i64 0, i64 %41
  %43 = load i32, i32* %42, align 4
  %44 = load i32, i32* %8, align 4
  %45 = sext i32 %44 to i64
  %46 = getelementptr inbounds [101 x i32], [101 x i32]* %10, i64 0, i64 %45
  store i32 %43, i32* %46, align 4
  br label %47

47:                                               ; preds = %38
  %48 = load i32, i32* %8, align 4
  %49 = add nsw i32 %48, 1
  store i32 %49, i32* %8, align 4
  br label %33

50:                                               ; preds = %33
  %51 = load i32, i32* %9, align 4
  %52 = load i32, i32* %6, align 4
  %53 = sub nsw i32 %52, 1
  %54 = sext i32 %53 to i64
  %55 = getelementptr inbounds [101 x i32], [101 x i32]* %10, i64 0, i64 %54
  store i32 %51, i32* %55, align 4
  br label %26

56:                                               ; preds = %26
  %57 = load i32, i32* %6, align 4
  %58 = sub nsw i32 %57, 1
  store i32 %58, i32* %8, align 4
  br label %59

59:                                               ; preds = %68, %56
  %60 = load i32, i32* %8, align 4
  %61 = icmp sgt i32 %60, 0
  br i1 %61, label %62, label %71

62:                                               ; preds = %59
  %63 = load i32, i32* %8, align 4
  %64 = sext i32 %63 to i64
  %65 = getelementptr inbounds [101 x i32], [101 x i32]* %10, i64 0, i64 %64
  %66 = load i32, i32* %65, align 4
  %67 = call i32 (i8*, ...) @printf(i8* getelementptr inbounds ([4 x i8], [4 x i8]* @.str.2, i64 0, i64 0), i32 %66)
  br label %68

68:                                               ; preds = %62
  %69 = load i32, i32* %8, align 4
  %70 = add nsw i32 %69, -1
  store i32 %70, i32* %8, align 4
  br label %59

71:                                               ; preds = %59
  %72 = load i32, i32* %8, align 4
  %73 = sext i32 %72 to i64
  %74 = getelementptr inbounds [101 x i32], [101 x i32]* %10, i64 0, i64 %73
  %75 = load i32, i32* %74, align 4
  %76 = call i32 (i8*, ...) @printf(i8* getelementptr inbounds ([4 x i8], [4 x i8]* @.str.3, i64 0, i64 0), i32 %75)
  ret i32 0
}

declare dso_local i32 @__isoc99_scanf(i8*, ...) #1

declare dso_local i32 @printf(i8*, ...) #1


!llvm.module.flags = !{!0}
!llvm.ident = !{!1}

!0 = !{i32 1, !"wchar_size", i32 4}
!1 = !{!"clang version 10.0.0-4ubuntu1 "}
